; Function Attrs: uwtable
define void @_ZThn8_NK8proxygen21RequestHandlerAdaptor23getCurrentTransportInfoEPN6wangle13TransportInfoE(ptr nocapture noundef readonly %this, ptr noundef %tinfo) unnamed_addr #9 align 2 {
entry:
  %txn_.i = getelementptr inbounds i8, ptr %this, i64 16
  %0 = load ptr, ptr %txn_.i, align 8
  %transport_.i.i = getelementptr inbounds i8, ptr %0, i64 272
  %1 = load ptr, ptr %transport_.i.i, align 8
  %vtable.i.i = load ptr, ptr %1, align 8
  %vfn.i.i = getelementptr inbounds i8, ptr %vtable.i.i, i64 200
  %2 = load ptr, ptr %vfn.i.i, align 8
  %call.i.i = tail call noundef zeroext i1 %2(ptr noundef nonnull align 8 dereferenceable(8) %1, ptr noundef %tinfo)
  ret void
}